target datalayout = "e-m:e-p270:32:32-p271:32:32-p272:64:64-i64:64-i128:128-f80:128-n8:16:32:64-S128"
target triple = "x86_64-pc-linux-gnu"

%struct.Node = type { i32 }
%struct.Expr = type { i32 }
%struct.FuncExpr = type { %struct.Expr, i32, i32, i8, i8, i32, i32, i32, ptr, i32 }
%struct.RelabelType = type { %struct.Expr, ptr, i32, i32, i32, i32, i32 }
%struct.CoerceViaIO = type { %struct.Expr, ptr, i32, i32, i32, i32 }
%struct.ArrayCoerceExpr = type { %struct.Expr, ptr, ptr, i32, i32, i32, i32, i32 }
%struct.ConvertRowtypeExpr = type { %struct.Expr, ptr, i32, i32, i32 }
%struct.CoerceToDomain = type { %struct.Expr, ptr, i32, i32, i32, i32, i32 }
%struct.List = type { i32, i32, i32, ptr, [0 x %union.ListCell] }
%union.ListCell = type { ptr }

; Function Attrs: inlinehint nounwind uwtable
define internal ptr @list_nth_cell(ptr noundef %0, i32 noundef %1) #4 {
  %3 = alloca ptr, align 8
  %4 = alloca i32, align 4
  store ptr %0, ptr %3, align 8
  store i32 %1, ptr %4, align 4
  %5 = load ptr, ptr %3, align 8
  %6 = getelementptr inbounds nuw %struct.List, ptr %5, i32 0, i32 3
  %7 = load ptr, ptr %6, align 8
  %8 = load i32, ptr %4, align 4
  %9 = sext i32 %8 to i64
  %10 = getelementptr inbounds %union.ListCell, ptr %7, i64 %9
  ret ptr %10
}

; Function Attrs: nounwind uwtable
define dso_local ptr @strip_implicit_coercions(ptr noundef %0) #0 {
  %2 = alloca ptr, align 8
  %3 = alloca ptr, align 8
  %4 = alloca ptr, align 8
  %5 = alloca i32, align 4
  %6 = alloca ptr, align 8
  %7 = alloca ptr, align 8
  %8 = alloca ptr, align 8
  %9 = alloca ptr, align 8
  %10 = alloca ptr, align 8
  store ptr %0, ptr %3, align 8
  %11 = load ptr, ptr %3, align 8
  %12 = icmp eq ptr %11, null
  br i1 %12, label %13, label %14

13:                                               ; preds = %1
  store ptr null, ptr %2, align 8
  br label %143

14:                                               ; preds = %1
  %15 = load ptr, ptr %3, align 8
  %16 = getelementptr inbounds nuw %struct.Node, ptr %15, i32 0, i32 0
  %17 = load i32, ptr %16, align 4
  %18 = icmp eq i32 %17, 15
  br i1 %18, label %19, label %36

19:                                               ; preds = %14
  call void @llvm.lifetime.start.p0(i64 8, ptr %4) #7
  %20 = load ptr, ptr %3, align 8
  store ptr %20, ptr %4, align 8
  %21 = load ptr, ptr %4, align 8
  %22 = getelementptr inbounds nuw %struct.FuncExpr, ptr %21, i32 0, i32 5
  %23 = load i32, ptr %22, align 8
  %24 = icmp eq i32 %23, 2
  br i1 %24, label %25, label %32

25:                                               ; preds = %19
  %26 = load ptr, ptr %4, align 8
  %27 = getelementptr inbounds nuw %struct.FuncExpr, ptr %26, i32 0, i32 8
  %28 = load ptr, ptr %27, align 8
  %29 = call ptr @list_nth_cell(ptr noundef %28, i32 noundef 0)
  %30 = load ptr, ptr %29, align 8
  %31 = call ptr @strip_implicit_coercions(ptr noundef %30)
  store ptr %31, ptr %2, align 8
  store i32 1, ptr %5, align 4
  br label %33

32:                                               ; preds = %19
  store i32 0, ptr %5, align 4
  br label %33

33:                                               ; preds = %32, %25
  call void @llvm.lifetime.end.p0(i64 8, ptr %4) #7
  %34 = load i32, ptr %5, align 4
  switch i32 %34, label %145 [
    i32 0, label %35
    i32 1, label %143
  ]

35:                                               ; preds = %33
  br label %141

36:                                               ; preds = %14
  %37 = load ptr, ptr %3, align 8
  %38 = getelementptr inbounds nuw %struct.Node, ptr %37, i32 0, i32 0
  %39 = load i32, ptr %38, align 4
  %40 = icmp eq i32 %39, 27
  br i1 %40, label %41, label %56

41:                                               ; preds = %36
  call void @llvm.lifetime.start.p0(i64 8, ptr %6) #7
  %42 = load ptr, ptr %3, align 8
  store ptr %42, ptr %6, align 8
  %43 = load ptr, ptr %6, align 8
  %44 = getelementptr inbounds nuw %struct.RelabelType, ptr %43, i32 0, i32 5
  %45 = load i32, ptr %44, align 4
  %46 = icmp eq i32 %45, 2
  br i1 %46, label %47, label %52

47:                                               ; preds = %41
  %48 = load ptr, ptr %6, align 8
  %49 = getelementptr inbounds nuw %struct.RelabelType, ptr %48, i32 0, i32 1
  %50 = load ptr, ptr %49, align 8
  %51 = call ptr @strip_implicit_coercions(ptr noundef %50)
  store ptr %51, ptr %2, align 8
  store i32 1, ptr %5, align 4
  br label %53

52:                                               ; preds = %41
  store i32 0, ptr %5, align 4
  br label %53

53:                                               ; preds = %52, %47
  call void @llvm.lifetime.end.p0(i64 8, ptr %6) #7
  %54 = load i32, ptr %5, align 4
  switch i32 %54, label %145 [
    i32 0, label %55
    i32 1, label %143
  ]

55:                                               ; preds = %53
  br label %140

56:                                               ; preds = %36
  %57 = load ptr, ptr %3, align 8
  %58 = getelementptr inbounds nuw %struct.Node, ptr %57, i32 0, i32 0
  %59 = load i32, ptr %58, align 4
  %60 = icmp eq i32 %59, 28
  br i1 %60, label %61, label %76

61:                                               ; preds = %56
  call void @llvm.lifetime.start.p0(i64 8, ptr %7) #7
  %62 = load ptr, ptr %3, align 8
  store ptr %62, ptr %7, align 8
  %63 = load ptr, ptr %7, align 8
  %64 = getelementptr inbounds nuw %struct.CoerceViaIO, ptr %63, i32 0, i32 4
  %65 = load i32, ptr %64, align 8
  %66 = icmp eq i32 %65, 2
  br i1 %66, label %67, label %72

67:                                               ; preds = %61
  %68 = load ptr, ptr %7, align 8
  %69 = getelementptr inbounds nuw %struct.CoerceViaIO, ptr %68, i32 0, i32 1
  %70 = load ptr, ptr %69, align 8
  %71 = call ptr @strip_implicit_coercions(ptr noundef %70)
  store ptr %71, ptr %2, align 8
  store i32 1, ptr %5, align 4
  br label %73

72:                                               ; preds = %61
  store i32 0, ptr %5, align 4
  br label %73

73:                                               ; preds = %72, %67
  call void @llvm.lifetime.end.p0(i64 8, ptr %7) #7
  %74 = load i32, ptr %5, align 4
  switch i32 %74, label %145 [
    i32 0, label %75
    i32 1, label %143
  ]

75:                                               ; preds = %73
  br label %139

76:                                               ; preds = %56
  %77 = load ptr, ptr %3, align 8
  %78 = getelementptr inbounds nuw %struct.Node, ptr %77, i32 0, i32 0
  %79 = load i32, ptr %78, align 4
  %80 = icmp eq i32 %79, 29
  br i1 %80, label %81, label %96

81:                                               ; preds = %76
  call void @llvm.lifetime.start.p0(i64 8, ptr %8) #7
  %82 = load ptr, ptr %3, align 8
  store ptr %82, ptr %8, align 8
  %83 = load ptr, ptr %8, align 8
  %84 = getelementptr inbounds nuw %struct.ArrayCoerceExpr, ptr %83, i32 0, i32 6
  %85 = load i32, ptr %84, align 4
  %86 = icmp eq i32 %85, 2
  br i1 %86, label %87, label %92

87:                                               ; preds = %81
  %88 = load ptr, ptr %8, align 8
  %89 = getelementptr inbounds nuw %struct.ArrayCoerceExpr, ptr %88, i32 0, i32 1
  %90 = load ptr, ptr %89, align 8
  %91 = call ptr @strip_implicit_coercions(ptr noundef %90)
  store ptr %91, ptr %2, align 8
  store i32 1, ptr %5, align 4
  br label %93

92:                                               ; preds = %81
  store i32 0, ptr %5, align 4
  br label %93

93:                                               ; preds = %92, %87
  call void @llvm.lifetime.end.p0(i64 8, ptr %8) #7
  %94 = load i32, ptr %5, align 4
  switch i32 %94, label %145 [
    i32 0, label %95
    i32 1, label %143
  ]

95:                                               ; preds = %93
  br label %138

96:                                               ; preds = %76
  %97 = load ptr, ptr %3, align 8
  %98 = getelementptr inbounds nuw %struct.Node, ptr %97, i32 0, i32 0
  %99 = load i32, ptr %98, align 4
  %100 = icmp eq i32 %99, 30
  br i1 %100, label %101, label %116

101:                                              ; preds = %96
  call void @llvm.lifetime.start.p0(i64 8, ptr %9) #7
  %102 = load ptr, ptr %3, align 8
  store ptr %102, ptr %9, align 8
  %103 = load ptr, ptr %9, align 8
  %104 = getelementptr inbounds nuw %struct.ConvertRowtypeExpr, ptr %103, i32 0, i32 3
  %105 = load i32, ptr %104, align 4
  %106 = icmp eq i32 %105, 2
  br i1 %106, label %107, label %112

107:                                              ; preds = %101
  %108 = load ptr, ptr %9, align 8
  %109 = getelementptr inbounds nuw %struct.ConvertRowtypeExpr, ptr %108, i32 0, i32 1
  %110 = load ptr, ptr %109, align 8
  %111 = call ptr @strip_implicit_coercions(ptr noundef %110)
  store ptr %111, ptr %2, align 8
  store i32 1, ptr %5, align 4
  br label %113

112:                                              ; preds = %101
  store i32 0, ptr %5, align 4
  br label %113

113:                                              ; preds = %112, %107
  call void @llvm.lifetime.end.p0(i64 8, ptr %9) #7
  %114 = load i32, ptr %5, align 4
  switch i32 %114, label %145 [
    i32 0, label %115
    i32 1, label %143
  ]

115:                                              ; preds = %113
  br label %137

116:                                              ; preds = %96
  %117 = load ptr, ptr %3, align 8
  %118 = getelementptr inbounds nuw %struct.Node, ptr %117, i32 0, i32 0
  %119 = load i32, ptr %118, align 4
  %120 = icmp eq i32 %119, 55
  br i1 %120, label %121, label %136

121:                                              ; preds = %116
  call void @llvm.lifetime.start.p0(i64 8, ptr %10) #7
  %122 = load ptr, ptr %3, align 8
  store ptr %122, ptr %10, align 8
  %123 = load ptr, ptr %10, align 8
  %124 = getelementptr inbounds nuw %struct.CoerceToDomain, ptr %123, i32 0, i32 5
  %125 = load i32, ptr %124, align 4
  %126 = icmp eq i32 %125, 2
  br i1 %126, label %127, label %132

127:                                              ; preds = %121
  %128 = load ptr, ptr %10, align 8
  %129 = getelementptr inbounds nuw %struct.CoerceToDomain, ptr %128, i32 0, i32 1
  %130 = load ptr, ptr %129, align 8
  %131 = call ptr @strip_implicit_coercions(ptr noundef %130)
  store ptr %131, ptr %2, align 8
  store i32 1, ptr %5, align 4
  br label %133

132:                                              ; preds = %121
  store i32 0, ptr %5, align 4
  br label %133

133:                                              ; preds = %132, %127
  call void @llvm.lifetime.end.p0(i64 8, ptr %10) #7
  %134 = load i32, ptr %5, align 4
  switch i32 %134, label %145 [
    i32 0, label %135
    i32 1, label %143
  ]

135:                                              ; preds = %133
  br label %136

136:                                              ; preds = %135, %116
  br label %137

137:                                              ; preds = %136, %115
  br label %138

138:                                              ; preds = %137, %95
  br label %139

139:                                              ; preds = %138, %75
  br label %140

140:                                              ; preds = %139, %55
  br label %141

141:                                              ; preds = %140, %35
  %142 = load ptr, ptr %3, align 8
  store ptr %142, ptr %2, align 8
  br label %143

143:                                              ; preds = %141, %133, %113, %93, %73, %53, %33, %13
  %144 = load ptr, ptr %2, align 8
  ret ptr %144

145:                                              ; preds = %133, %113, %93, %73, %53, %33
  unreachable
}