; Function Attrs: nofree norecurse nosync nounwind memory(read, inaccessiblemem: none) uwtable
define dso_local noundef ptr @strip_implicit_coercions(ptr noundef readonly captures(address_is_null, ret: address, provenance) %0) local_unnamed_addr #5 {
  %2 = icmp eq ptr %0, null
  br i1 %2, label %.thread, label %.lr.ph

.lr.ph:                                           ; preds = %1, %tailrecurse.backedge
  %.tr67 = phi ptr [ %.tr.be, %tailrecurse.backedge ], [ %0, %1 ]
  %3 = load i32, ptr %.tr67, align 4
  switch i32 %3, label %.thread [
    i32 15, label %4
    i32 27, label %13
    i32 28, label %19
    i32 29, label %25
    i32 30, label %31
    i32 55, label %37
  ]

4:                                                ; preds = %.lr.ph
  %5 = getelementptr inbounds nuw i8, ptr %.tr67, i64 16
  %6 = load i32, ptr %5, align 8
  %7 = icmp eq i32 %6, 2
  br i1 %7, label %8, label %.thread

8:                                                ; preds = %4
  %9 = getelementptr inbounds nuw i8, ptr %.tr67, i64 32
  %10 = load ptr, ptr %9, align 8
  %11 = getelementptr i8, ptr %10, i64 16
  %.val = load ptr, ptr %11, align 8
  br label %tailrecurse.backedge

tailrecurse.backedge:                             ; preds = %8, %17, %23, %29, %35, %41
  %.tr.be.in = phi ptr [ %.val, %8 ], [ %18, %17 ], [ %24, %23 ], [ %30, %29 ], [ %36, %35 ], [ %42, %41 ]
  %.tr.be = load ptr, ptr %.tr.be.in, align 8
  %12 = icmp eq ptr %.tr.be, null
  br i1 %12, label %.thread, label %.lr.ph

13:                                               ; preds = %.lr.ph
  %14 = getelementptr inbounds nuw i8, ptr %.tr67, i64 28
  %15 = load i32, ptr %14, align 4
  %16 = icmp eq i32 %15, 2
  br i1 %16, label %17, label %.thread

17:                                               ; preds = %13
  %18 = getelementptr inbounds nuw i8, ptr %.tr67, i64 8
  br label %tailrecurse.backedge

19:                                               ; preds = %.lr.ph
  %20 = getelementptr inbounds nuw i8, ptr %.tr67, i64 24
  %21 = load i32, ptr %20, align 8
  %22 = icmp eq i32 %21, 2
  br i1 %22, label %23, label %.thread

23:                                               ; preds = %19
  %24 = getelementptr inbounds nuw i8, ptr %.tr67, i64 8
  br label %tailrecurse.backedge

25:                                               ; preds = %.lr.ph
  %26 = getelementptr inbounds nuw i8, ptr %.tr67, i64 36
  %27 = load i32, ptr %26, align 4
  %28 = icmp eq i32 %27, 2
  br i1 %28, label %29, label %.thread

29:                                               ; preds = %25
  %30 = getelementptr inbounds nuw i8, ptr %.tr67, i64 8
  br label %tailrecurse.backedge

31:                                               ; preds = %.lr.ph
  %32 = getelementptr inbounds nuw i8, ptr %.tr67, i64 20
  %33 = load i32, ptr %32, align 4
  %34 = icmp eq i32 %33, 2
  br i1 %34, label %35, label %.thread

35:                                               ; preds = %31
  %36 = getelementptr inbounds nuw i8, ptr %.tr67, i64 8
  br label %tailrecurse.backedge

37:                                               ; preds = %.lr.ph
  %38 = getelementptr inbounds nuw i8, ptr %.tr67, i64 28
  %39 = load i32, ptr %38, align 4
  %40 = icmp eq i32 %39, 2
  br i1 %40, label %41, label %.thread

41:                                               ; preds = %37
  %42 = getelementptr inbounds nuw i8, ptr %.tr67, i64 8
  br label %tailrecurse.backedge

.thread:                                          ; preds = %tailrecurse.backedge, %.lr.ph, %4, %13, %19, %25, %31, %37, %1
  %.0 = phi ptr [ null, %1 ], [ %.tr67, %37 ], [ %.tr67, %31 ], [ %.tr67, %25 ], [ %.tr67, %19 ], [ %.tr67, %13 ], [ %.tr67, %4 ], [ %.tr67, %.lr.ph ], [ null, %tailrecurse.backedge ]
  ret ptr %.0
}